target datalayout = "e-m:e-p270:32:32-p271:32:32-p272:64:64-i64:64-i128:128-f80:128-n8:16:32:64-S128"
target triple = "x86_64-pc-linux-gnu"

@.str.12 = private unnamed_addr constant [30 x i8] c"could not write COPY data: %m\00", align 1
@.str.13 = private unnamed_addr constant [30 x i8] c"COPY data transfer failed: %s\00", align 1
@.str.14 = private unnamed_addr constant [3 x i8] c"%s\00", align 1

; Function Attrs: nounwind uwtable
define dso_local zeroext i1 @handleCopyOut(ptr noundef %0, ptr noundef %1, ptr noundef %2) #0 {
  %4 = alloca ptr, align 8
  %5 = alloca ptr, align 8
  %6 = alloca ptr, align 8
  %7 = alloca i8, align 1
  %8 = alloca ptr, align 8
  %9 = alloca i32, align 4
  store ptr %0, ptr %4, align 8
  store ptr %1, ptr %5, align 8
  store ptr %2, ptr %6, align 8
  call void @llvm.lifetime.start.p0(i64 1, ptr %7) #7
  store i8 1, ptr %7, align 1
  call void @llvm.lifetime.start.p0(i64 8, ptr %8) #7
  call void @llvm.lifetime.start.p0(i64 4, ptr %9) #7
  br label %10

10:                                               ; preds = %37, %3
  %11 = load ptr, ptr %4, align 8
  %12 = call i32 @PQgetCopyData(ptr noundef %11, ptr noundef %8, i32 noundef 0)
  store i32 %12, ptr %9, align 4
  %13 = load i32, ptr %9, align 4
  %14 = icmp slt i32 %13, 0
  br i1 %14, label %15, label %16

15:                                               ; preds = %10
  br label %38

16:                                               ; preds = %10
  %17 = load ptr, ptr %8, align 8
  %18 = icmp ne ptr %17, null
  br i1 %18, label %19, label %37

19:                                               ; preds = %16
  %20 = load i8, ptr %7, align 1, !range !4, !noundef !5
  %21 = trunc i8 %20 to i1
  br i1 %21, label %22, label %35

22:                                               ; preds = %19
  %23 = load ptr, ptr %5, align 8
  %24 = icmp ne ptr %23, null
  br i1 %24, label %25, label %35

25:                                               ; preds = %22
  %26 = load ptr, ptr %8, align 8
  %27 = load i32, ptr %9, align 4
  %28 = sext i32 %27 to i64
  %29 = load ptr, ptr %5, align 8
  %30 = call i64 @fwrite(ptr noundef %26, i64 noundef 1, i64 noundef %28, ptr noundef %29)
  %31 = load i32, ptr %9, align 4
  %32 = sext i32 %31 to i64
  %33 = icmp ne i64 %30, %32
  br i1 %33, label %34, label %35

34:                                               ; preds = %25
  call void (i32, i32, ptr, ...) @pg_log_generic(i32 noundef 4, i32 noundef 0, ptr noundef @.str.12)
  store i8 0, ptr %7, align 1
  br label %35

35:                                               ; preds = %34, %25, %22, %19
  %36 = load ptr, ptr %8, align 8
  call void @PQfreemem(ptr noundef %36)
  br label %37

37:                                               ; preds = %35, %16
  br label %10

38:                                               ; preds = %15
  %39 = load i8, ptr %7, align 1, !range !4, !noundef !5
  %40 = trunc i8 %39 to i1
  br i1 %40, label %41, label %49

41:                                               ; preds = %38
  %42 = load ptr, ptr %5, align 8
  %43 = icmp ne ptr %42, null
  br i1 %43, label %44, label %49

44:                                               ; preds = %41
  %45 = load ptr, ptr %5, align 8
  %46 = call i32 @fflush(ptr noundef %45)
  %47 = icmp ne i32 %46, 0
  br i1 %47, label %48, label %49

48:                                               ; preds = %44
  call void (i32, i32, ptr, ...) @pg_log_generic(i32 noundef 4, i32 noundef 0, ptr noundef @.str.12)
  store i8 0, ptr %7, align 1
  br label %49

49:                                               ; preds = %48, %44, %41, %38
  %50 = load i32, ptr %9, align 4
  %51 = icmp eq i32 %50, -2
  br i1 %51, label %52, label %55

52:                                               ; preds = %49
  %53 = load ptr, ptr %4, align 8
  %54 = call ptr @PQerrorMessage(ptr noundef %53)
  call void (i32, i32, ptr, ...) @pg_log_generic(i32 noundef 4, i32 noundef 0, ptr noundef @.str.13, ptr noundef %54)
  store i8 0, ptr %7, align 1
  br label %55

55:                                               ; preds = %52, %49
  %56 = load ptr, ptr %4, align 8
  %57 = call ptr @PQgetResult(ptr noundef %56)
  %58 = load ptr, ptr %6, align 8
  store ptr %57, ptr %58, align 8
  %59 = load ptr, ptr %6, align 8
  %60 = load ptr, ptr %59, align 8
  %61 = call i32 @PQresultStatus(ptr noundef %60)
  %62 = icmp ne i32 %61, 1
  br i1 %62, label %63, label %66

63:                                               ; preds = %55
  %64 = load ptr, ptr %4, align 8
  %65 = call ptr @PQerrorMessage(ptr noundef %64)
  call void (i32, i32, ptr, ...) @pg_log_generic(i32 noundef 2, i32 noundef 0, ptr noundef @.str.14, ptr noundef %65)
  store i8 0, ptr %7, align 1
  br label %66

66:                                               ; preds = %63, %55
  %67 = load i8, ptr %7, align 1, !range !4, !noundef !5
  %68 = trunc i8 %67 to i1
  call void @llvm.lifetime.end.p0(i64 4, ptr %9) #7
  call void @llvm.lifetime.end.p0(i64 8, ptr %8) #7
  call void @llvm.lifetime.end.p0(i64 1, ptr %7) #7
  ret i1 %68
}