; Function Attrs: nounwind uwtable
define dso_local zeroext i1 @handleCopyOut(ptr noundef %0, ptr noundef captures(address_is_null) %1, ptr noundef writeonly captures(none) %2) local_unnamed_addr #0 {
  %4 = alloca ptr, align 8
  call void @llvm.lifetime.start.p0(i64 8, ptr nonnull %4) #11
  %5 = call i32 @PQgetCopyData(ptr noundef %0, ptr noundef nonnull %4, i32 noundef 0) #11
  %6 = icmp slt i32 %5, 0
  br i1 %6, label %._crit_edge, label %.lr.ph

.lr.ph:                                           ; preds = %3
  %.not30 = icmp eq ptr %1, null
  br i1 %.not30, label %.lr.ph.split.us, label %.lr.ph.split

.lr.ph.split.us:                                  ; preds = %.lr.ph, %9
  %7 = load ptr, ptr %4, align 8
  %.not.us = icmp eq ptr %7, null
  br i1 %.not.us, label %9, label %8

8:                                                ; preds = %.lr.ph.split.us
  call void @PQfreemem(ptr noundef nonnull %7) #11
  br label %9

9:                                                ; preds = %8, %.lr.ph.split.us
  %10 = call i32 @PQgetCopyData(ptr noundef %0, ptr noundef nonnull %4, i32 noundef 0) #11
  %11 = icmp slt i32 %10, 0
  br i1 %11, label %._crit_edge, label %.lr.ph.split.us

.lr.ph.split:                                     ; preds = %.lr.ph, %22
  %12 = phi i32 [ %23, %22 ], [ %5, %.lr.ph ]
  %.027 = phi i8 [ %.1, %22 ], [ 1, %.lr.ph ]
  %13 = load ptr, ptr %4, align 8
  %.not = icmp eq ptr %13, null
  br i1 %.not, label %22, label %14

14:                                               ; preds = %.lr.ph.split
  %15 = trunc nuw i8 %.027 to i1
  br i1 %15, label %16, label %20

16:                                               ; preds = %14
  %17 = zext nneg i32 %12 to i64
  %18 = call i64 @fwrite(ptr noundef nonnull %13, i64 noundef 1, i64 noundef %17, ptr noundef nonnull %1)
  %.not24 = icmp eq i64 %18, %17
  br i1 %.not24, label %20, label %19

19:                                               ; preds = %16
  call void (i32, i32, ptr, ...) @pg_log_generic(i32 noundef 4, i32 noundef 0, ptr noundef nonnull @.str.12) #11
  br label %20

20:                                               ; preds = %19, %16, %14
  %.2 = phi i8 [ 0, %19 ], [ 1, %16 ], [ 0, %14 ]
  %21 = load ptr, ptr %4, align 8
  call void @PQfreemem(ptr noundef %21) #11
  br label %22

22:                                               ; preds = %20, %.lr.ph.split
  %.1 = phi i8 [ %.2, %20 ], [ %.027, %.lr.ph.split ]
  %23 = call i32 @PQgetCopyData(ptr noundef %0, ptr noundef nonnull %4, i32 noundef 0) #11
  %24 = icmp slt i32 %23, 0
  br i1 %24, label %._crit_edge, label %.lr.ph.split

._crit_edge:                                      ; preds = %22, %9, %3
  %.0.lcssa = phi i8 [ 1, %3 ], [ 1, %9 ], [ %.1, %22 ]
  %.lcssa = phi i32 [ %5, %3 ], [ %10, %9 ], [ %23, %22 ]
  %25 = trunc nuw i8 %.0.lcssa to i1
  %26 = icmp ne ptr %1, null
  %or.cond3 = and i1 %26, %25
  br i1 %or.cond3, label %27, label %30

27:                                               ; preds = %._crit_edge
  %28 = call i32 @fflush(ptr noundef nonnull %1)
  %.not25 = icmp eq i32 %28, 0
  br i1 %.not25, label %30, label %29

29:                                               ; preds = %27
  call void (i32, i32, ptr, ...) @pg_log_generic(i32 noundef 4, i32 noundef 0, ptr noundef nonnull @.str.12) #11
  br label %30

30:                                               ; preds = %29, %27, %._crit_edge
  %.3 = phi i8 [ 0, %29 ], [ 1, %27 ], [ %.0.lcssa, %._crit_edge ]
  %31 = icmp eq i32 %.lcssa, -2
  br i1 %31, label %32, label %34

32:                                               ; preds = %30
  %33 = call ptr @PQerrorMessage(ptr noundef %0) #11
  call void (i32, i32, ptr, ...) @pg_log_generic(i32 noundef 4, i32 noundef 0, ptr noundef nonnull @.str.13, ptr noundef %33) #11
  br label %34

34:                                               ; preds = %32, %30
  %.4 = phi i8 [ 0, %32 ], [ %.3, %30 ]
  %35 = call ptr @PQgetResult(ptr noundef %0) #11
  store ptr %35, ptr %2, align 8
  %36 = call i32 @PQresultStatus(ptr noundef %35) #11
  %.not26 = icmp eq i32 %36, 1
  br i1 %.not26, label %39, label %37

37:                                               ; preds = %34
  %38 = call ptr @PQerrorMessage(ptr noundef %0) #11
  call void (i32, i32, ptr, ...) @pg_log_generic(i32 noundef 2, i32 noundef 0, ptr noundef nonnull @.str.14, ptr noundef %38) #11
  br label %39

39:                                               ; preds = %37, %34
  %.5 = phi i8 [ 0, %37 ], [ %.4, %34 ]
  %40 = trunc nuw i8 %.5 to i1
  call void @llvm.lifetime.end.p0(i64 8, ptr nonnull %4) #11
  ret i1 %40
}